; Function Attrs: nounwind uwtable
define void @b2Body_SetGravityScale(i64 %0, float noundef %1) local_unnamed_addr #0 {
  %.sroa.2.0.extract.shift = lshr i64 %0, 32
  %3 = trunc nuw i64 %.sroa.2.0.extract.shift to i32
  %4 = and i32 %3, 65535
  %5 = tail call ptr @b2GetWorldLocked(i32 noundef %4) #10
  %6 = icmp eq ptr %5, null
  br i1 %6, label %21, label %7

7:                                                ; preds = %2
  %8 = getelementptr inbounds nuw i8, ptr %5, i64 1032
  %.val.i = load ptr, ptr %8, align 8, !tbaa !10
  %9 = shl i64 %0, 32
  %sext.i = add i64 %9, -4294967296
  %10 = ashr exact i64 %sext.i, 25
  %11 = getelementptr inbounds i8, ptr %.val.i, i64 %10
  %12 = getelementptr inbounds nuw i8, ptr %5, i64 1072
  %13 = getelementptr inbounds nuw i8, ptr %11, i64 40
  %14 = load i32, ptr %13, align 8, !tbaa !19
  %.val.i6 = load ptr, ptr %12, align 8, !tbaa !24
  %15 = sext i32 %14 to i64
  %16 = getelementptr inbounds %struct.b2SolverSet, ptr %.val.i6, i64 %15
  %17 = getelementptr inbounds nuw i8, ptr %11, i64 44
  %18 = load i32, ptr %17, align 4, !tbaa !27
  %.val5.i = load ptr, ptr %16, align 8, !tbaa !14
  %19 = sext i32 %18 to i64
  %20 = getelementptr inbounds %struct.b2BodySim, ptr %.val5.i, i64 %19, i32 13
  store float %1, ptr %20, align 4, !tbaa !106
  br label %21

21:                                               ; preds = %2, %7
  ret void
}